; Function Attrs: mustprogress uwtable
define dso_local ptr @_ZNK14cmCacheManager10CacheEntry11GetPropertyERKNSt7__cxx1112basic_stringIcSt11char_traitsIcESaIcEEE(ptr noundef nonnull align 8 dereferenceable(97) %0, ptr noundef nonnull align 8 dereferenceable(32) %1) local_unnamed_addr #5 align 2 {
  %3 = tail call noundef i32 @_ZNKSt7__cxx1112basic_stringIcSt11char_traitsIcESaIcEE7compareEPKc(ptr noundef nonnull align 8 dereferenceable(32) %1, ptr noundef nonnull @.str.51) #25
  %4 = icmp eq i32 %3, 0
  br i1 %4, label %5, label %9

5:                                                ; preds = %2
  %6 = getelementptr inbounds nuw i8, ptr %0, i64 32
  %7 = load i32, ptr %6, align 8, !tbaa !67
  %8 = tail call noundef nonnull align 8 dereferenceable(32) ptr @_ZN7cmState22CacheEntryTypeToStringB5cxx11EN12cmStateEnums14CacheEntryTypeE(i32 noundef %7)
  br label %15

9:                                                ; preds = %2
  %10 = tail call noundef i32 @_ZNKSt7__cxx1112basic_stringIcSt11char_traitsIcESaIcEE7compareEPKc(ptr noundef nonnull align 8 dereferenceable(32) %1, ptr noundef nonnull @.str.52) #25
  %11 = icmp eq i32 %10, 0
  br i1 %11, label %15, label %12

12:                                               ; preds = %9
  %13 = getelementptr inbounds nuw i8, ptr %0, i64 40
  %14 = tail call ptr @_ZNK13cmPropertyMap16GetPropertyValueERKNSt7__cxx1112basic_stringIcSt11char_traitsIcESaIcEEE(ptr noundef nonnull align 8 dereferenceable(56) %13, ptr noundef nonnull align 8 dereferenceable(32) %1)
  br label %15

15:                                               ; preds = %9, %12, %5
  %.sroa.0.0 = phi ptr [ %8, %5 ], [ %14, %12 ], [ %0, %9 ]
  ret ptr %.sroa.0.0
}